; Function Attrs: mustprogress uwtable
define internal fastcc void @_ZN5arrow12_GLOBAL__N_115SystemAllocator15AllocateAlignedEllPPh(ptr dead_on_unwind noalias nonnull writable align 8 %0, i64 noundef %1, i64 noundef %2, ptr noundef %3) unnamed_addr #4 align 2 personality ptr @__gxx_personality_v0 {
  %5 = alloca %"class.std::__cxx11::basic_string", align 8
  %6 = alloca i64, align 8
  %7 = alloca i64, align 8
  store i64 %1, ptr %6, align 8, !tbaa !108
  %8 = icmp eq i64 %1, 0
  br i1 %8, label %9, label %10

9:                                                ; preds = %4
  store ptr @_ZN5arrow11memory_pool8internal14zero_size_areaE, ptr %3, align 8, !tbaa !106
  store ptr null, ptr %0, align 8, !tbaa !21, !alias.scope !369
  br label %34

10:                                               ; preds = %4
  %11 = tail call i32 @posix_memalign(ptr noundef %3, i64 noundef %2, i64 noundef %1) #32
  switch i32 %11, label %33 [
    i32 12, label %12
    i32 22, label %32
  ]

12:                                               ; preds = %10
  call void @llvm.lifetime.start.p0(i64 32, ptr nonnull %5) #32, !noalias !372
  call void @_ZN5arrow4util13StringBuilderIJRA16_KcRlRA8_S2_EEENSt7__cxx1112basic_stringIcSt11char_traitsIcESaIcEEEDpOT_(ptr dead_on_unwind nonnull writable sret(%"class.std::__cxx11::basic_string") align 8 %5, ptr noundef nonnull align 1 dereferenceable(16) @.str.42, ptr noundef nonnull align 8 dereferenceable(8) %6, ptr noundef nonnull align 1 dereferenceable(8) @.str.43), !noalias !372
  invoke void @_ZN5arrow6StatusC1ENS_10StatusCodeERKNSt7__cxx1112basic_stringIcSt11char_traitsIcESaIcEEE(ptr noundef nonnull align 8 dereferenceable(8) %0, i8 noundef signext 1, ptr noundef nonnull align 8 dereferenceable(32) %5)
          to label %13 unwind label %22

13:                                               ; preds = %12
  %14 = load ptr, ptr %5, align 8, !tbaa !41, !noalias !372
  %15 = getelementptr inbounds nuw i8, ptr %5, i64 16
  %16 = icmp eq ptr %14, %15
  br i1 %16, label %_ZNKSt7__cxx1112basic_stringIcSt11char_traitsIcESaIcEE11_M_is_localEv.exit.thread.i.i.i.i, label %_ZNKSt7__cxx1112basic_stringIcSt11char_traitsIcESaIcEE11_M_is_localEv.exit.i.i.i.i

_ZNKSt7__cxx1112basic_stringIcSt11char_traitsIcESaIcEE11_M_is_localEv.exit.thread.i.i.i.i: ; preds = %13
  %17 = getelementptr inbounds nuw i8, ptr %5, i64 8
  %18 = load i64, ptr %17, align 8, !tbaa !42, !noalias !372
  %19 = icmp ult i64 %18, 16
  call void @llvm.assume(i1 %19)
  br label %_ZN5arrow6Status11OutOfMemoryIJRA16_KcRlRA8_S2_EEES0_DpOT_.exit

_ZNKSt7__cxx1112basic_stringIcSt11char_traitsIcESaIcEE11_M_is_localEv.exit.i.i.i.i: ; preds = %13
  %20 = load i64, ptr %15, align 8, !tbaa !43, !noalias !372
  %21 = add i64 %20, 1
  call void @_ZdlPvm(ptr noundef %14, i64 noundef %21) #34
  br label %_ZN5arrow6Status11OutOfMemoryIJRA16_KcRlRA8_S2_EEES0_DpOT_.exit

22:                                               ; preds = %12
  %23 = landingpad { ptr, i32 }
          cleanup
  %24 = load ptr, ptr %5, align 8, !tbaa !41, !noalias !372
  %25 = getelementptr inbounds nuw i8, ptr %5, i64 16
  %26 = icmp eq ptr %24, %25
  br i1 %26, label %_ZNKSt7__cxx1112basic_stringIcSt11char_traitsIcESaIcEE11_M_is_localEv.exit.thread.i.i6.i.i, label %_ZNKSt7__cxx1112basic_stringIcSt11char_traitsIcESaIcEE11_M_is_localEv.exit.i.i5.i.i

_ZNKSt7__cxx1112basic_stringIcSt11char_traitsIcESaIcEE11_M_is_localEv.exit.thread.i.i6.i.i: ; preds = %22
  %27 = getelementptr inbounds nuw i8, ptr %5, i64 8
  %28 = load i64, ptr %27, align 8, !tbaa !42, !noalias !372
  %29 = icmp ult i64 %28, 16
  call void @llvm.assume(i1 %29)
  br label %_ZNSt7__cxx1112basic_stringIcSt11char_traitsIcESaIcEED2Ev.exit7.i.i

_ZNKSt7__cxx1112basic_stringIcSt11char_traitsIcESaIcEE11_M_is_localEv.exit.i.i5.i.i: ; preds = %22
  %30 = load i64, ptr %25, align 8, !tbaa !43, !noalias !372
  %31 = add i64 %30, 1
  call void @_ZdlPvm(ptr noundef %24, i64 noundef %31) #34
  br label %_ZNSt7__cxx1112basic_stringIcSt11char_traitsIcESaIcEED2Ev.exit7.i.i

_ZNSt7__cxx1112basic_stringIcSt11char_traitsIcESaIcEED2Ev.exit7.i.i: ; preds = %_ZNKSt7__cxx1112basic_stringIcSt11char_traitsIcESaIcEE11_M_is_localEv.exit.i.i5.i.i, %_ZNKSt7__cxx1112basic_stringIcSt11char_traitsIcESaIcEE11_M_is_localEv.exit.thread.i.i6.i.i
  call void @llvm.lifetime.end.p0(i64 32, ptr nonnull %5) #32, !noalias !372
  resume { ptr, i32 } %23

_ZN5arrow6Status11OutOfMemoryIJRA16_KcRlRA8_S2_EEES0_DpOT_.exit: ; preds = %_ZNKSt7__cxx1112basic_stringIcSt11char_traitsIcESaIcEE11_M_is_localEv.exit.thread.i.i.i.i, %_ZNKSt7__cxx1112basic_stringIcSt11char_traitsIcESaIcEE11_M_is_localEv.exit.i.i.i.i
  call void @llvm.lifetime.end.p0(i64 32, ptr nonnull %5) #32, !noalias !372
  br label %34

32:                                               ; preds = %10
  call void @llvm.lifetime.start.p0(i64 8, ptr nonnull %7) #32
  store i64 %2, ptr %7, align 8, !tbaa !108
  call void @_ZN5arrow6Status8FromArgsIJRA30_KcmEEES0_NS_10StatusCodeEDpOT_(ptr dead_on_unwind nonnull writable sret(%"class.arrow::Status") align 8 %0, i8 noundef signext 4, ptr noundef nonnull align 1 dereferenceable(30) @.str.44, ptr noundef nonnull align 8 dereferenceable(8) %7)
  call void @llvm.lifetime.end.p0(i64 8, ptr nonnull %7) #32
  br label %34

33:                                               ; preds = %10
  store ptr null, ptr %0, align 8, !tbaa !21, !alias.scope !377
  br label %34

34:                                               ; preds = %_ZN5arrow6Status11OutOfMemoryIJRA16_KcRlRA8_S2_EEES0_DpOT_.exit, %32, %33, %9
  ret void
}